target datalayout = "e-m:e-p270:32:32-p271:32:32-p272:64:64-i64:64-i128:128-f80:128-n8:16:32:64-S128"
target triple = "x86_64-pc-linux-gnu"

; Function Attrs: mustprogress uwtable
define dso_local noundef double @_ZN4absl13base_internal18UnscaledCycleClock9FrequencyEv() #0 align 2 {
  %1 = call noundef double @_ZN4absl13base_internal19NominalCPUFrequencyEv()
  ret double %1
}

declare noundef double @_ZN4absl13base_internal19NominalCPUFrequencyEv() #1


!llvm.module.flags = !{!0, !1, !2, !3}

!0 = !{i32 1, !"wchar_size", i32 4}
!1 = !{i32 8, !"PIC Level", i32 2}
!2 = !{i32 7, !"PIE Level", i32 2}
!3 = !{i32 7, !"uwtable", i32 2}
